; ModuleID = '53/1419.c'
source_filename = "53/1419.c"
target datalayout = "e-m:e-p270:32:32-p271:32:32-p272:64:64-i64:64-f80:128-n8:16:32:64-S128"
target triple = "x86_64-pc-linux-gnu"

@.str = private unnamed_addr constant [3 x i8] c"%d\00", align 1
@.str.1 = private unnamed_addr constant [4 x i8] c"%d,\00", align 1

; Function Attrs: noinline nounwind uwtable
define dso_local i32 @main() #0 {
  %1 = alloca i32, align 4
  %2 = alloca i32, align 4
  %3 = alloca [300 x i32], align 16
  %4 = alloca i32, align 4
  %5 = alloca i32, align 4
  %6 = alloca i32, align 4
  %7 = alloca i32, align 4
  store i32 0, i32* %1, align 4
  %8 = call i32 (i8*, ...) @__isoc99_scanf(i8* getelementptr inbounds ([3 x i8], [3 x i8]* @.str, i64 0, i64 0), i32* %2)
  store i32 0, i32* %7, align 4
  %9 = getelementptr inbounds [300 x i32], [300 x i32]* %3, i64 0, i64 0
  %10 = call i32 (i8*, ...) @__isoc99_scanf(i8* getelementptr inbounds ([3 x i8], [3 x i8]* @.str, i64 0, i64 0), i32* %9)
  store i32 1, i32* %4, align 4
  br label %11

11:                                               ; preds = %47, %0
  %12 = load i32, i32* %4, align 4
  %13 = load i32, i32* %2, align 4
  %14 = icmp slt i32 %12, %13
  br i1 %14, label %15, label %50

15:                                               ; preds = %11
  %16 = call i32 (i8*, ...) @__isoc99_scanf(i8* getelementptr inbounds ([3 x i8], [3 x i8]* @.str, i64 0, i64 0), i32* %6)
  store i32 0, i32* %5, align 4
  br label %17

17:                                               ; preds = %30, %15
  %18 = load i32, i32* %5, align 4
  %19 = load i32, i32* %4, align 4
  %20 = icmp slt i32 %18, %19
  br i1 %20, label %21, label %33

21:                                               ; preds = %17
  %22 = load i32, i32* %6, align 4
  %23 = load i32, i32* %5, align 4
  %24 = sext i32 %23 to i64
  %25 = getelementptr inbounds [300 x i32], [300 x i32]* %3, i64 0, i64 %24
  %26 = load i32, i32* %25, align 4
  %27 = icmp eq i32 %22, %26
  br i1 %27, label %28, label %29

28:                                               ; preds = %21
  store i32 1, i32* %7, align 4
  br label %33

29:                                               ; preds = %21
  br label %30

30:                                               ; preds = %29
  %31 = load i32, i32* %5, align 4
  %32 = add nsw i32 %31, 1
  store i32 %32, i32* %5, align 4
  br label %17

33:                                               ; preds = %28, %17
  %34 = load i32, i32* %7, align 4
  %35 = icmp ne i32 %34, 0
  br i1 %35, label %36, label %41

36:                                               ; preds = %33
  %37 = load i32, i32* %4, align 4
  %38 = add nsw i32 %37, -1
  store i32 %38, i32* %4, align 4
  %39 = load i32, i32* %2, align 4
  %40 = add nsw i32 %39, -1
  store i32 %40, i32* %2, align 4
  br label %46

41:                                               ; preds = %33
  %42 = load i32, i32* %6, align 4
  %43 = load i32, i32* %4, align 4
  %44 = sext i32 %43 to i64
  %45 = getelementptr inbounds [300 x i32], [300 x i32]* %3, i64 0, i64 %44
  store i32 %42, i32* %45, align 4
  br label %46

46:                                               ; preds = %41, %36
  store i32 0, i32* %7, align 4
  br label %47

47:                                               ; preds = %46
  %48 = load i32, i32* %4, align 4
  %49 = add nsw i32 %48, 1
  store i32 %49, i32* %4, align 4
  br label %11

50:                                               ; preds = %11
  store i32 0, i32* %4, align 4
  br label %51

51:                                               ; preds = %78, %50
  %52 = load i32, i32* %4, align 4
  %53 = load i32, i32* %2, align 4
  %54 = icmp slt i32 %52, %53
  br i1 %54, label %55, label %81

55:                                               ; preds = %51
  %56 = load i32, i32* %4, align 4
  %57 = load i32, i32* %2, align 4
  %58 = sub nsw i32 %57, 1
  %59 = icmp ne i32 %56, %58
  br i1 %59, label %60, label %66

60:                                               ; preds = %55
  %61 = load i32, i32* %4, align 4
  %62 = sext i32 %61 to i64
  %63 = getelementptr inbounds [300 x i32], [300 x i32]* %3, i64 0, i64 %62
  %64 = load i32, i32* %63, align 4
  %65 = call i32 (i8*, ...) @printf(i8* getelementptr inbounds ([4 x i8], [4 x i8]* @.str.1, i64 0, i64 0), i32 %64)
  br label %66

66:                                               ; preds = %60, %55
  %67 = load i32, i32* %4, align 4
  %68 = load i32, i32* %2, align 4
  %69 = sub nsw i32 %68, 1
  %70 = icmp eq i32 %67, %69
  br i1 %70, label %71, label %77

71:                                               ; preds = %66
  %72 = load i32, i32* %4, align 4
  %73 = sext i32 %72 to i64
  %74 = getelementptr inbounds [300 x i32], [300 x i32]* %3, i64 0, i64 %73
  %75 = load i32, i32* %74, align 4
  %76 = call i32 (i8*, ...) @printf(i8* getelementptr inbounds ([3 x i8], [3 x i8]* @.str, i64 0, i64 0), i32 %75)
  br label %77

77:                                               ; preds = %71, %66
  br label %78

78:                                               ; preds = %77
  %79 = load i32, i32* %4, align 4
  %80 = add nsw i32 %79, 1
  store i32 %80, i32* %4, align 4
  br label %51

81:                                               ; preds = %51
  ret i32 0
}

declare dso_local i32 @__isoc99_scanf(i8*, ...) #1

declare dso_local i32 @printf(i8*, ...) #1


!llvm.module.flags = !{!0}
!llvm.ident = !{!1}

!0 = !{i32 1, !"wchar_size", i32 4}
!1 = !{!"clang version 10.0.0-4ubuntu1 "}
